; ModuleID = '38/552.c'
source_filename = "38/552.c"
target datalayout = "e-m:e-p270:32:32-p271:32:32-p272:64:64-i64:64-f80:128-n8:16:32:64-S128"
target triple = "x86_64-pc-linux-gnu"

@.str = private unnamed_addr constant [3 x i8] c"%d\00", align 1
@.str.1 = private unnamed_addr constant [3 x i8] c"%f\00", align 1
@.str.2 = private unnamed_addr constant [8 x i8] c"%0.5lf\0A\00", align 1

; Function Attrs: noinline nounwind uwtable
define dso_local i32 @main() #0 {
  %1 = alloca i32, align 4
  %2 = alloca i32, align 4
  %3 = alloca i32, align 4
  %4 = alloca i32, align 4
  %5 = alloca double, align 8
  %6 = alloca [100 x float], align 16
  %7 = alloca float, align 4
  %8 = alloca float, align 4
  store i32 0, i32* %1, align 4
  store double 0.000000e+00, double* %5, align 8
  store float 0.000000e+00, float* %7, align 4
  %9 = call i32 (i8*, ...) @__isoc99_scanf(i8* getelementptr inbounds ([3 x i8], [3 x i8]* @.str, i64 0, i64 0), i32* %3)
  br label %10

10:                                               ; preds = %65, %0
  %11 = load i32, i32* %3, align 4
  %12 = icmp sgt i32 %11, 0
  br i1 %12, label %13, label %74

13:                                               ; preds = %10
  store float 0.000000e+00, float* %7, align 4
  store double 0.000000e+00, double* %5, align 8
  %14 = call i32 (i8*, ...) @__isoc99_scanf(i8* getelementptr inbounds ([3 x i8], [3 x i8]* @.str, i64 0, i64 0), i32* %4)
  store i32 0, i32* %2, align 4
  br label %15

15:                                               ; preds = %24, %13
  %16 = load i32, i32* %2, align 4
  %17 = load i32, i32* %4, align 4
  %18 = icmp slt i32 %16, %17
  br i1 %18, label %19, label %27

19:                                               ; preds = %15
  %20 = load i32, i32* %2, align 4
  %21 = sext i32 %20 to i64
  %22 = getelementptr inbounds [100 x float], [100 x float]* %6, i64 0, i64 %21
  %23 = call i32 (i8*, ...) @__isoc99_scanf(i8* getelementptr inbounds ([3 x i8], [3 x i8]* @.str.1, i64 0, i64 0), float* %22)
  br label %24

24:                                               ; preds = %19
  %25 = load i32, i32* %2, align 4
  %26 = add nsw i32 %25, 1
  store i32 %26, i32* %2, align 4
  br label %15

27:                                               ; preds = %15
  store i32 0, i32* %2, align 4
  br label %28

28:                                               ; preds = %39, %27
  %29 = load i32, i32* %2, align 4
  %30 = load i32, i32* %4, align 4
  %31 = icmp slt i32 %29, %30
  br i1 %31, label %32, label %42

32:                                               ; preds = %28
  %33 = load i32, i32* %2, align 4
  %34 = sext i32 %33 to i64
  %35 = getelementptr inbounds [100 x float], [100 x float]* %6, i64 0, i64 %34
  %36 = load float, float* %35, align 4
  %37 = load float, float* %7, align 4
  %38 = fadd float %37, %36
  store float %38, float* %7, align 4
  br label %39

39:                                               ; preds = %32
  %40 = load i32, i32* %2, align 4
  %41 = add nsw i32 %40, 1
  store i32 %41, i32* %2, align 4
  br label %28

42:                                               ; preds = %28
  %43 = load float, float* %7, align 4
  %44 = load i32, i32* %4, align 4
  %45 = sitofp i32 %44 to float
  %46 = fdiv float %43, %45
  store float %46, float* %8, align 4
  store i32 0, i32* %2, align 4
  br label %47

47:                                               ; preds = %62, %42
  %48 = load i32, i32* %2, align 4
  %49 = load i32, i32* %4, align 4
  %50 = icmp slt i32 %48, %49
  br i1 %50, label %51, label %65

51:                                               ; preds = %47
  %52 = load i32, i32* %2, align 4
  %53 = sext i32 %52 to i64
  %54 = getelementptr inbounds [100 x float], [100 x float]* %6, i64 0, i64 %53
  %55 = load float, float* %54, align 4
  %56 = load float, float* %8, align 4
  %57 = fsub float %55, %56
  %58 = fpext float %57 to double
  %59 = call double @pow(double %58, double 2.000000e+00) #3
  %60 = load double, double* %5, align 8
  %61 = fadd double %60, %59
  store double %61, double* %5, align 8
  br label %62

62:                                               ; preds = %51
  %63 = load i32, i32* %2, align 4
  %64 = add nsw i32 %63, 1
  store i32 %64, i32* %2, align 4
  br label %47

65:                                               ; preds = %47
  %66 = load double, double* %5, align 8
  %67 = load i32, i32* %4, align 4
  %68 = sitofp i32 %67 to double
  %69 = fdiv double %66, %68
  %70 = call double @sqrt(double %69) #3
  %71 = call i32 (i8*, ...) @printf(i8* getelementptr inbounds ([8 x i8], [8 x i8]* @.str.2, i64 0, i64 0), double %70)
  %72 = load i32, i32* %3, align 4
  %73 = add nsw i32 %72, -1
  store i32 %73, i32* %3, align 4
  br label %10

74:                                               ; preds = %10
  ret i32 0
}

declare dso_local i32 @__isoc99_scanf(i8*, ...) #1

; Function Attrs: nounwind
declare dso_local double @pow(double, double) #2

declare dso_local i32 @printf(i8*, ...) #1

; Function Attrs: nounwind
declare dso_local double @sqrt(double) #2


!llvm.module.flags = !{!0}
!llvm.ident = !{!1}

!0 = !{i32 1, !"wchar_size", i32 4}
!1 = !{!"clang version 10.0.0-4ubuntu1 "}
